target datalayout = "e-m:e-p270:32:32-p271:32:32-p272:64:64-i64:64-i128:128-f80:128-n8:16:32:64-S128"
target triple = "x86_64-pc-linux-gnu"

%"class.llvm::StringRef" = type { ptr, i64 }
%"class.llvm::SmallVectorBase" = type { ptr, i32, i32 }
%"class.llvm::DenseMap" = type <{ ptr, i32, i32, i32, [4 x i8] }>
%"class.llvm::MachO::Record.base" = type <{ %"class.llvm::StringRef", i8, i8, i8 }>
%"class.llvm::MachO::ObjCInterfaceRecord" = type { %"class.llvm::MachO::ObjCContainerRecord", %"struct.llvm::MachO::ObjCInterfaceRecord::Linkages", %"class.llvm::MapVector.34" }
%"class.llvm::MachO::ObjCContainerRecord" = type { %"class.llvm::MachO::Record.base", %"class.llvm::MapVector.28" }
%"class.llvm::MapVector.28" = type { %"class.llvm::DenseMap", %"class.llvm::SmallVector.29" }
%"class.llvm::SmallVector.29" = type { %"class.llvm::SmallVectorImpl.30" }
%"class.llvm::SmallVectorImpl.30" = type { %"class.llvm::SmallVectorTemplateBase.31" }
%"class.llvm::SmallVectorTemplateBase.31" = type { %"class.llvm::SmallVectorTemplateCommon.32" }
%"class.llvm::SmallVectorTemplateCommon.32" = type { %"class.llvm::SmallVectorBase" }
%"struct.llvm::MachO::ObjCInterfaceRecord::Linkages" = type { i8, i8, i8 }
%"class.llvm::MapVector.34" = type { %"class.llvm::DenseMap", %"class.llvm::SmallVector.35" }
%"class.llvm::SmallVector.35" = type { %"class.llvm::SmallVectorImpl.36" }
%"class.llvm::SmallVectorImpl.36" = type { %"class.llvm::SmallVectorTemplateBase.37" }
%"class.llvm::SmallVectorTemplateBase.37" = type { %"class.llvm::SmallVectorTemplateCommon.38" }
%"class.llvm::SmallVectorTemplateCommon.38" = type { %"class.llvm::SmallVectorBase" }

; Function Attrs: mustprogress nounwind uwtable
define dso_local noundef zeroext i8 @_ZNK4llvm5MachO19ObjCInterfaceRecord19getLinkageForSymbolENS0_16ObjCIFSymbolKindE(ptr noundef nonnull align 8 dereferenceable(112) %0, i8 noundef zeroext %1) #0 align 2 {
  %3 = alloca i8, align 1
  %4 = alloca ptr, align 8
  %5 = alloca i8, align 1
  store ptr %0, ptr %4, align 8
  store i8 %1, ptr %5, align 1
  %6 = load ptr, ptr %4, align 8
  %7 = load i8, ptr %5, align 1
  %8 = icmp eq i8 %7, 1
  br i1 %8, label %9, label %13

9:                                                ; preds = %2
  %10 = getelementptr inbounds nuw %"class.llvm::MachO::ObjCInterfaceRecord", ptr %6, i32 0, i32 1
  %11 = getelementptr inbounds nuw %"struct.llvm::MachO::ObjCInterfaceRecord::Linkages", ptr %10, i32 0, i32 0
  %12 = load i8, ptr %11, align 8
  store i8 %12, ptr %3, align 1
  br label %28

13:                                               ; preds = %2
  %14 = load i8, ptr %5, align 1
  %15 = icmp eq i8 %14, 2
  br i1 %15, label %16, label %20

16:                                               ; preds = %13
  %17 = getelementptr inbounds nuw %"class.llvm::MachO::ObjCInterfaceRecord", ptr %6, i32 0, i32 1
  %18 = getelementptr inbounds nuw %"struct.llvm::MachO::ObjCInterfaceRecord::Linkages", ptr %17, i32 0, i32 1
  %19 = load i8, ptr %18, align 1
  store i8 %19, ptr %3, align 1
  br label %28

20:                                               ; preds = %13
  %21 = load i8, ptr %5, align 1
  %22 = icmp eq i8 %21, 4
  br i1 %22, label %23, label %27

23:                                               ; preds = %20
  %24 = getelementptr inbounds nuw %"class.llvm::MachO::ObjCInterfaceRecord", ptr %6, i32 0, i32 1
  %25 = getelementptr inbounds nuw %"struct.llvm::MachO::ObjCInterfaceRecord::Linkages", ptr %24, i32 0, i32 2
  %26 = load i8, ptr %25, align 2
  store i8 %26, ptr %3, align 1
  br label %28

27:                                               ; preds = %20
  unreachable

28:                                               ; preds = %23, %16, %9
  %29 = load i8, ptr %3, align 1
  ret i8 %29
}