; Function Attrs: mustprogress nofree norecurse nosync nounwind willreturn memory(argmem: read, inaccessiblemem: write) uwtable
define dso_local noundef zeroext i8 @_ZNK4llvm5MachO19ObjCInterfaceRecord19getLinkageForSymbolENS0_16ObjCIFSymbolKindE(ptr nocapture noundef nonnull readonly align 8 dereferenceable(112) %0, i8 noundef zeroext %1) local_unnamed_addr #4 align 2 {
  switch i8 %1, label %4 [
    i8 1, label %6
    i8 2, label %3
  ]

3:                                                ; preds = %2
  br label %6

4:                                                ; preds = %2
  %5 = icmp eq i8 %1, 4
  tail call void @llvm.assume(i1 %5)
  br label %6

6:                                                ; preds = %2, %4, %3
  %.sink = phi i64 [ 66, %4 ], [ 65, %3 ], [ 64, %2 ]
  %7 = getelementptr inbounds i8, ptr %0, i64 %.sink
  %.0 = load i8, ptr %7, align 1
  ret i8 %.0
}